; ModuleID = '34/72.c'
source_filename = "34/72.c"
target datalayout = "e-m:e-p270:32:32-p271:32:32-p272:64:64-i64:64-f80:128-n8:16:32:64-S128"
target triple = "x86_64-pc-linux-gnu"

@.str = private unnamed_addr constant [3 x i8] c"%d\00", align 1
@.str.1 = private unnamed_addr constant [9 x i8] c"%d/2=%d\0A\00", align 1
@.str.2 = private unnamed_addr constant [4 x i8] c"End\00", align 1
@.str.3 = private unnamed_addr constant [11 x i8] c"%d*3+1=%d\0A\00", align 1

; Function Attrs: noinline nounwind uwtable
define dso_local i32 @main() #0 {
  %1 = alloca i32, align 4
  %2 = alloca i32, align 4
  %3 = alloca i32, align 4
  %4 = alloca i32, align 4
  %5 = alloca i32, align 4
  store i32 0, i32* %1, align 4
  %6 = call i32 (i8*, ...) @__isoc99_scanf(i8* getelementptr inbounds ([3 x i8], [3 x i8]* @.str, i64 0, i64 0), i32* %2)
  %7 = load i32, i32* %2, align 4
  %8 = srem i32 %7, 2
  store i32 %8, i32* %3, align 4
  %9 = load i32, i32* %3, align 4
  %10 = icmp eq i32 %9, 0
  br i1 %10, label %11, label %64

11:                                               ; preds = %0
  br label %12

12:                                               ; preds = %15, %11
  %13 = load i32, i32* %3, align 4
  %14 = icmp eq i32 %13, 0
  br i1 %14, label %15, label %24

15:                                               ; preds = %12
  %16 = load i32, i32* %2, align 4
  %17 = sdiv i32 %16, 2
  store i32 %17, i32* %4, align 4
  %18 = load i32, i32* %4, align 4
  %19 = srem i32 %18, 2
  store i32 %19, i32* %3, align 4
  %20 = load i32, i32* %2, align 4
  %21 = load i32, i32* %4, align 4
  %22 = call i32 (i8*, ...) @printf(i8* getelementptr inbounds ([9 x i8], [9 x i8]* @.str.1, i64 0, i64 0), i32 %20, i32 %21)
  %23 = load i32, i32* %4, align 4
  store i32 %23, i32* %2, align 4
  br label %12

24:                                               ; preds = %12
  %25 = load i32, i32* %2, align 4
  %26 = icmp eq i32 %25, 1
  br i1 %26, label %27, label %29

27:                                               ; preds = %24
  %28 = call i32 (i8*, ...) @printf(i8* getelementptr inbounds ([4 x i8], [4 x i8]* @.str.2, i64 0, i64 0))
  br label %63

29:                                               ; preds = %24
  br label %30

30:                                               ; preds = %60, %29
  %31 = load i32, i32* %3, align 4
  %32 = icmp ne i32 %31, 0
  br i1 %32, label %33, label %36

33:                                               ; preds = %30
  %34 = load i32, i32* %2, align 4
  %35 = icmp ne i32 %34, 1
  br label %36

36:                                               ; preds = %33, %30
  %37 = phi i1 [ false, %30 ], [ %35, %33 ]
  br i1 %37, label %38, label %61

38:                                               ; preds = %36
  %39 = load i32, i32* %2, align 4
  %40 = mul nsw i32 %39, 3
  %41 = add nsw i32 %40, 1
  store i32 %41, i32* %5, align 4
  %42 = load i32, i32* %2, align 4
  %43 = load i32, i32* %5, align 4
  %44 = call i32 (i8*, ...) @printf(i8* getelementptr inbounds ([11 x i8], [11 x i8]* @.str.3, i64 0, i64 0), i32 %42, i32 %43)
  %45 = load i32, i32* %5, align 4
  store i32 %45, i32* %2, align 4
  %46 = load i32, i32* %2, align 4
  %47 = srem i32 %46, 2
  store i32 %47, i32* %3, align 4
  br label %48

48:                                               ; preds = %51, %38
  %49 = load i32, i32* %3, align 4
  %50 = icmp eq i32 %49, 0
  br i1 %50, label %51, label %60

51:                                               ; preds = %48
  %52 = load i32, i32* %2, align 4
  %53 = sdiv i32 %52, 2
  store i32 %53, i32* %4, align 4
  %54 = load i32, i32* %4, align 4
  %55 = srem i32 %54, 2
  store i32 %55, i32* %3, align 4
  %56 = load i32, i32* %2, align 4
  %57 = load i32, i32* %4, align 4
  %58 = call i32 (i8*, ...) @printf(i8* getelementptr inbounds ([9 x i8], [9 x i8]* @.str.1, i64 0, i64 0), i32 %56, i32 %57)
  %59 = load i32, i32* %4, align 4
  store i32 %59, i32* %2, align 4
  br label %48

60:                                               ; preds = %48
  br label %30

61:                                               ; preds = %36
  %62 = call i32 (i8*, ...) @printf(i8* getelementptr inbounds ([4 x i8], [4 x i8]* @.str.2, i64 0, i64 0))
  br label %63

63:                                               ; preds = %61, %27
  br label %104

64:                                               ; preds = %0
  %65 = load i32, i32* %2, align 4
  %66 = icmp eq i32 %65, 1
  br i1 %66, label %67, label %69

67:                                               ; preds = %64
  %68 = call i32 (i8*, ...) @printf(i8* getelementptr inbounds ([4 x i8], [4 x i8]* @.str.2, i64 0, i64 0))
  br label %103

69:                                               ; preds = %64
  br label %70

70:                                               ; preds = %100, %69
  %71 = load i32, i32* %3, align 4
  %72 = icmp ne i32 %71, 0
  br i1 %72, label %73, label %76

73:                                               ; preds = %70
  %74 = load i32, i32* %2, align 4
  %75 = icmp ne i32 %74, 1
  br label %76

76:                                               ; preds = %73, %70
  %77 = phi i1 [ false, %70 ], [ %75, %73 ]
  br i1 %77, label %78, label %101

78:                                               ; preds = %76
  %79 = load i32, i32* %2, align 4
  %80 = mul nsw i32 %79, 3
  %81 = add nsw i32 %80, 1
  store i32 %81, i32* %5, align 4
  %82 = load i32, i32* %2, align 4
  %83 = load i32, i32* %5, align 4
  %84 = call i32 (i8*, ...) @printf(i8* getelementptr inbounds ([11 x i8], [11 x i8]* @.str.3, i64 0, i64 0), i32 %82, i32 %83)
  %85 = load i32, i32* %5, align 4
  store i32 %85, i32* %2, align 4
  %86 = load i32, i32* %2, align 4
  %87 = srem i32 %86, 2
  store i32 %87, i32* %3, align 4
  br label %88

88:                                               ; preds = %91, %78
  %89 = load i32, i32* %3, align 4
  %90 = icmp eq i32 %89, 0
  br i1 %90, label %91, label %100

91:                                               ; preds = %88
  %92 = load i32, i32* %2, align 4
  %93 = sdiv i32 %92, 2
  store i32 %93, i32* %4, align 4
  %94 = load i32, i32* %4, align 4
  %95 = srem i32 %94, 2
  store i32 %95, i32* %3, align 4
  %96 = load i32, i32* %2, align 4
  %97 = load i32, i32* %4, align 4
  %98 = call i32 (i8*, ...) @printf(i8* getelementptr inbounds ([9 x i8], [9 x i8]* @.str.1, i64 0, i64 0), i32 %96, i32 %97)
  %99 = load i32, i32* %4, align 4
  store i32 %99, i32* %2, align 4
  br label %88

100:                                              ; preds = %88
  br label %70

101:                                              ; preds = %76
  %102 = call i32 (i8*, ...) @printf(i8* getelementptr inbounds ([4 x i8], [4 x i8]* @.str.2, i64 0, i64 0))
  br label %103

103:                                              ; preds = %101, %67
  br label %104

104:                                              ; preds = %103, %63
  %105 = load i32, i32* %1, align 4
  ret i32 %105
}

declare dso_local i32 @__isoc99_scanf(i8*, ...) #1

declare dso_local i32 @printf(i8*, ...) #1


!llvm.module.flags = !{!0}
!llvm.ident = !{!1}

!0 = !{i32 1, !"wchar_size", i32 4}
!1 = !{!"clang version 10.0.0-4ubuntu1 "}
